; Function Attrs: nounwind uwtable
define internal range(i32 0, 2) i32 @_blendop_blendif_suppress_toggled(ptr noundef %0, ptr readnone captures(none) %1, ptr noundef initializes((500, 504)) %2) #0 {
  %4 = tail call i32 @gtk_toggle_button_get_active(ptr noundef %0) #18
  %.not = icmp eq i32 %4, 0
  %5 = zext i1 %.not to i32
  %6 = getelementptr inbounds nuw i8, ptr %2, i64 500
  store i32 %5, ptr %6, align 4, !tbaa !248
  %7 = load ptr, ptr getelementptr inbounds nuw (i8, ptr @darktable, i64 104), align 8, !tbaa !33
  %8 = getelementptr inbounds nuw i8, ptr %7, i64 96
  %9 = load i32, ptr %8, align 8, !tbaa !66
  %.not10 = icmp eq i32 %9, 0
  br i1 %.not10, label %10, label %20

10:                                               ; preds = %3
  %11 = getelementptr inbounds nuw i8, ptr %2, i64 824
  %12 = load ptr, ptr %11, align 8, !tbaa !261
  %.not11 = icmp eq ptr %12, null
  br i1 %.not11, label %16, label %13

13:                                               ; preds = %10
  %14 = tail call i64 @gtk_toggle_button_get_type() #19
  %15 = tail call ptr @g_type_check_instance_cast(ptr noundef nonnull %12, i64 noundef %14) #18
  tail call void @gtk_toggle_button_set_active(ptr noundef %15, i32 noundef 1) #18
  br label %16

16:                                               ; preds = %13, %10
  tail call void @dt_iop_request_focus(ptr noundef nonnull %2) #18
  %17 = load i32, ptr %6, align 4, !tbaa !248
  tail call void @gtk_toggle_button_set_active(ptr noundef %0, i32 noundef %17) #18
  %18 = tail call i64 @gtk_widget_get_type() #19
  %19 = tail call ptr @g_type_check_instance_cast(ptr noundef %0, i64 noundef %18) #18
  tail call void @dt_control_queue_redraw_widget(ptr noundef %19) #18
  tail call void @dt_iop_refresh_center(ptr noundef nonnull %2) #18
  br label %20

20:                                               ; preds = %3, %16
  %.0 = phi i32 [ 1, %16 ], [ 0, %3 ]
  ret i32 %.0
}